; Function Attrs: inlinehint mustprogress optsize uwtable
define internal noundef ptr @"_ZZN8nanobind6detail11func_createILb0ELb1EZL30nanobind_init_test_ndarray_extRNS_7module_EE4$_48NS_7ndarrayIJNS_5numpyEKfNS0_5shapeIJLl2ELl4EEEENS_8c_contigEEEEJETpTnmJEJNS_5scopeENS_4nameENS_9rv_policyEEEEP7_objectOT1_PFT2_DpT3_ESt16integer_sequenceImJXspT4_EEEDpRKT5_ENUlPvPSG_PhSE_PNS0_12cleanup_listEE_8__invokeESU_SV_SW_SE_SY_"(ptr readnone captures(none) %0, ptr readnone captures(none) %1, ptr readnone captures(none) %2, i32 noundef %3, ptr noundef %4) #10 align 2 personality ptr @__gxx_personality_v0 {
  %6 = alloca [2 x i64], align 16
  call void @llvm.lifetime.start.p0(i64 16, ptr nonnull %6) #22, !noalias !217
  call void @llvm.memcpy.p0.p0.i64(ptr noundef nonnull align 16 dereferenceable(16) %6, ptr noundef nonnull align 16 dereferenceable(16) @"__const._ZZL30nanobind_init_test_ndarray_extRN8nanobind7module_EENK4$_53clEv.shape", i64 16, i1 false), !noalias !217
  %7 = call noundef ptr @_ZN8nanobind6detail14ndarray_createEPvmPKmP7_objectPKlNS_6dlpack5dtypeEbiic(ptr noundef nonnull @_ZL8f_global, i64 noundef 2, ptr noundef nonnull %6, ptr noundef null, ptr noundef null, i32 73730, i1 noundef zeroext true, i32 noundef 0, i32 noundef 0, i8 noundef signext 67) #21, !noalias !217
  %8 = call noundef ptr @_ZN8nanobind6detail15ndarray_inc_refEPNS0_14ndarray_handleE(ptr noundef %7) #23, !noalias !217
  call void @llvm.lifetime.end.p0(i64 16, ptr nonnull %6) #22, !noalias !217
  %9 = call noundef ptr @_ZN8nanobind6detail14ndarray_exportEPNS0_14ndarray_handleEiNS_9rv_policyEPNS0_12cleanup_listE(ptr noundef %7, i32 noundef 1, i32 noundef %3, ptr noundef %4) #23
  call void @_ZN8nanobind6detail15ndarray_dec_refEPNS0_14ndarray_handleE(ptr noundef %7) #23
  ret ptr %9
}